; Function Attrs: nounwind uwtable
define ptr @l___private_Lean_Compiler_IR_FreeVars_0__Lean_IR_MaxIndex_collectAlts___boxed(ptr noundef %0, ptr noundef %1, ptr noundef %2) local_unnamed_addr #0 {
  tail call void @lean_inc_heartbeat() #3
  %4 = tail call noalias ptr @mi_malloc_small(i64 noundef 32) #3
  %5 = icmp eq ptr %4, null
  br i1 %5, label %6, label %lean_alloc_closure.exit.i

6:                                                ; preds = %3
  tail call void @lean_internal_panic_out_of_memory() #4
  unreachable

lean_alloc_closure.exit.i:                        ; preds = %3
  %7 = getelementptr inbounds nuw i8, ptr %4, i64 4
  store i32 1, ptr %4, align 4, !tbaa !4
  store i32 -184549344, ptr %7, align 4
  %8 = getelementptr inbounds nuw i8, ptr %4, i64 8
  store ptr @l___private_Lean_Compiler_IR_FreeVars_0__Lean_IR_MaxIndex_collectAlts___lambda__1___boxed, ptr %8, align 8, !tbaa !13
  %9 = getelementptr inbounds nuw i8, ptr %4, i64 16
  store i16 3, ptr %9, align 8, !tbaa !15
  %10 = getelementptr inbounds nuw i8, ptr %4, i64 18
  store i16 1, ptr %10, align 2, !tbaa !15
  %11 = getelementptr inbounds nuw i8, ptr %4, i64 24
  store ptr %0, ptr %11, align 8, !tbaa !13
  %12 = getelementptr i8, ptr %1, i64 8
  %.val.i.i = load i64, ptr %12, align 8, !tbaa !17
  %.mask.i.i = and i64 %.val.i.i, 9223372036854775807
  %.not.i.i = icmp eq i64 %.mask.i.i, 0
  br i1 %.not.i.i, label %lean_dec.exit24.i.i, label %lean_dec.exit.i.i

lean_dec.exit24.i.i:                              ; preds = %lean_alloc_closure.exit.i
  %13 = ptrtoint ptr %4 to i64
  %14 = and i64 %13, 1
  %.not36.i.i = icmp eq i64 %14, 0
  br i1 %.not36.i.i, label %15, label %l___private_Lean_Compiler_IR_FreeVars_0__Lean_IR_MaxIndex_collectAlts.exit

15:                                               ; preds = %lean_dec.exit24.i.i
  tail call void @lean_dec_ref_cold(ptr noundef nonnull %4) #3
  br label %l___private_Lean_Compiler_IR_FreeVars_0__Lean_IR_MaxIndex_collectAlts.exit

lean_dec.exit.i.i:                                ; preds = %lean_alloc_closure.exit.i
  %16 = tail call ptr @l_Array_foldlMUnsafe_fold___at___private_Lean_Compiler_IR_FreeVars_0__Lean_IR_MaxIndex_collectArray___spec__1___rarg(ptr noundef nonnull %4, ptr noundef nonnull readonly %1, i64 noundef 0, i64 noundef %.mask.i.i, ptr noundef %2)
  br label %l___private_Lean_Compiler_IR_FreeVars_0__Lean_IR_MaxIndex_collectAlts.exit

l___private_Lean_Compiler_IR_FreeVars_0__Lean_IR_MaxIndex_collectAlts.exit: ; preds = %lean_dec.exit24.i.i, %15, %lean_dec.exit.i.i
  %.0.i.i = phi ptr [ %16, %lean_dec.exit.i.i ], [ %2, %15 ], [ %2, %lean_dec.exit24.i.i ]
  %17 = ptrtoint ptr %1 to i64
  %18 = and i64 %17, 1
  %.not = icmp eq i64 %18, 0
  br i1 %.not, label %19, label %lean_dec.exit

19:                                               ; preds = %l___private_Lean_Compiler_IR_FreeVars_0__Lean_IR_MaxIndex_collectAlts.exit
  %20 = load i32, ptr %1, align 4, !tbaa !4
  %21 = icmp sgt i32 %20, 1
  br i1 %21, label %22, label %24, !prof !9

22:                                               ; preds = %19
  %23 = add nsw i32 %20, -1
  store i32 %23, ptr %1, align 4, !tbaa !4
  br label %lean_dec.exit

24:                                               ; preds = %19
  %.not.i = icmp eq i32 %20, 0
  br i1 %.not.i, label %lean_dec.exit, label %25

25:                                               ; preds = %24
  tail call void @lean_dec_ref_cold(ptr noundef nonnull %1) #3
  br label %lean_dec.exit

lean_dec.exit:                                    ; preds = %25, %24, %22, %l___private_Lean_Compiler_IR_FreeVars_0__Lean_IR_MaxIndex_collectAlts.exit
  ret ptr %.0.i.i
}